(dp1
S'output'
p2
S"<class 'requests.exceptions.SSLError'> HTTPSConnectionPool(host='www.em.com.br', port=443): Max retries exceeded with url: /app/noticia/gerais/2019/03/28/interna_gerais,1041796/desaparecido-em-brumadinho-e-localizado-vivo-apos-dois-meses.shtml (Caused by SSLError(SSLEOFError(8, u'EOF occurred in violation of protocol (_ssl.c:661)'),))"
p3
sS'layer'
p4
S'c:\\web2py\\applications\\paywall\\controllers/default.py'
p5
sS'code'
p6
S'<code object <module> at 0000000004BD0CB0, file "c:\\web2py\\applications\\paywall\\controllers/default.py", line 6>'
p7
sS'snapshot'
p8
(dp9
S'exception'
p10
(dp11
S'__module__'
p12
S"'requests.exceptions'"
p13
sS'__getslice__'
p14
S"<method-wrapper '__getslice__' of SSLError object>"
p15
sS'__str__'
p16
S"<method-wrapper '__str__' of SSLError object>"
p17
sS'__reduce__'
p18
S'<built-in method __reduce__ of SSLError object>'
p19
sS'__dict__'
p20
S"{'request': <PreparedRequest [GET]>, 'response': None}"
p21
sS'__sizeof__'
p22
S'<built-in method __sizeof__ of SSLError object>'
p23
sS'__weakref__'
p24
S'None'
p25
sS'message'
p26
S'MaxRetryError("HTTPSConnectionPool(host=\'www.em....red in violation of protocol (_ssl.c:661)\'),))",)'
p27
sS'__init__'
p28
S'<bound method SSLError.__init__ of SSLError(MaxR... in violation of protocol (_ssl.c:661)\'),))",),)>'
p29
sS'__setattr__'
p30
S"<method-wrapper '__setattr__' of SSLError object>"
p31
sS'__reduce_ex__'
p32
S'<built-in method __reduce_ex__ of SSLError object>'
p33
sS'__new__'
p34
S'<built-in method __new__ of type object>'
p35
sS'errno'
p36
S'None'
p37
sS'__format__'
p38
S'<built-in method __format__ of SSLError object>'
p39
sS'__class__'
p40
S"<class 'requests.exceptions.SSLError'>"
p41
sS'filename'
p42
S'None'
p43
sS'__doc__'
p44
S"'An SSL error occurred.'"
p45
sS'__getitem__'
p46
S"<method-wrapper '__getitem__' of SSLError object>"
p47
sS'__setstate__'
p48
S'<built-in method __setstate__ of SSLError object>'
p49
sS'__getattribute__'
p50
S"<method-wrapper '__getattribute__' of SSLError object>"
p51
sS'args'
p52
S'(MaxRetryError("HTTPSConnectionPool(host=\'www.em....red in violation of protocol (_ssl.c:661)\'),))",),)'
p53
sS'__subclasshook__'
p54
S'<built-in method __subclasshook__ of type object>'
p55
sS'response'
p56
S'None'
p57
sS'__unicode__'
p58
S'<built-in method __unicode__ of SSLError object>'
p59
sS'request'
p60
S'<PreparedRequest [GET]>'
p61
sS'strerror'
p62
S'None'
p63
sS'__delattr__'
p64
S"<method-wrapper '__delattr__' of SSLError object>"
p65
sS'__repr__'
p66
S"<method-wrapper '__repr__' of SSLError object>"
p67
sS'__hash__'
p68
S"<method-wrapper '__hash__' of SSLError object>"
p69
ssS'evalue'
p70
S"HTTPSConnectionPool(host='www.em.com.br', port=443): Max retries exceeded with url: /app/noticia/gerais/2019/03/28/interna_gerais,1041796/desaparecido-em-brumadinho-e-localizado-vivo-apos-dois-meses.shtml (Caused by SSLError(SSLEOFError(8, u'EOF occurred in violation of protocol (_ssl.c:661)'),))"
p71
sg60
cgluon.html
XML_unpickle
p72
(S's\x9ca\x00\x00<div><table><tr><td style="font-weight:bold;vertical-align:top;">ajax</td><td style="vertical-align:top;">:</td><td><div>False</div></td></tr><tr><td style="font-weight:bold;vertical-align:top;">application</td><td style="vertical-align:top;">:</td><td><div>paywall</div></td></tr><tr><td style="font-weight:bold;vertical-align:top;">args</td><td style="vertical-align:top;">:</td><td><div><table></table></div></td></tr><tr><td style="font-weight:bold;vertical-align:top;">cid</td><td style="vertical-align:top;">:</td><td><div>None</div></td></tr><tr><td style="font-weight:bold;vertical-align:top;">client</td><td style="vertical-align:top;">:</td><td><div>127.0.0.1</div></td></tr><tr><td style="font-weight:bold;vertical-align:top;">controller</td><td style="vertical-align:top;">:</td><td><div>default</div></td></tr><tr><td style="font-weight:bold;vertical-align:top;">cookies</td><td style="vertical-align:top;">:</td><td><div><table><tr><td style="font-weight:bold;vertical-align:top;">session_id_admin</td><td style="vertical-align:top;">:</td><td><div>127.0.0.1-e8988dcb-98ca-4128-ab42-f9c54fea6b35<table><tr><td style="font-weight:bold;vertical-align:top;">comment</td><td style="vertical-align:top;">:</td><td><div></div></td></tr><tr><td style="font-weight:bold;vertical-align:top;">domain</td><td style="vertical-align:top;">:</td><td><div></div></td></tr><tr><td style="font-weight:bold;vertical-align:top;">expires</td><td style="vertical-align:top;">:</td><td><div></div></td></tr><tr><td style="font-weight:bold;vertical-align:top;">httponly</td><td style="vertical-align:top;">:</td><td><div></div></td></tr><tr><td style="font-weight:bold;vertical-align:top;">max-age</td><td style="vertical-align:top;">:</td><td><div></div></td></tr><tr><td style="font-weight:bold;vertical-align:top;">path</td><td style="vertical-align:top;">:</td><td><div></div></td></tr><tr><td style="font-weight:bold;vertical-align:top;">samesite</td><td style="vertical-align:top;">:</td><td><div></div></td></tr><tr><td style="font-weight:bold;vertical-align:top;">secure</td><td style="vertical-align:top;">:</td><td><div></div></td></tr><tr><td style="font-weight:bold;vertical-align:top;">version</td><td style="vertical-align:top;">:</td><td><div></div></td></tr></table></div></td></tr><tr><td style="font-weight:bold;vertical-align:top;">session_id_paywall</td><td style="vertical-align:top;">:</td><td><div>127.0.0.1-f637e2ad-2f55-43b0-b2b5-fc9da42a82f9<table><tr><td style="font-weight:bold;vertical-align:top;">comment</td><td style="vertical-align:top;">:</td><td><div></div></td></tr><tr><td style="font-weight:bold;vertical-align:top;">domain</td><td style="vertical-align:top;">:</td><td><div></div></td></tr><tr><td style="font-weight:bold;vertical-align:top;">expires</td><td style="vertical-align:top;">:</td><td><div></div></td></tr><tr><td style="font-weight:bold;vertical-align:top;">httponly</td><td style="vertical-align:top;">:</td><td><div></div></td></tr><tr><td style="font-weight:bold;vertical-align:top;">max-age</td><td style="vertical-align:top;">:</td><td><div></div></td></tr><tr><td style="font-weight:bold;vertical-align:top;">path</td><td style="vertical-align:top;">:</td><td><div></div></td></tr><tr><td style="font-weight:bold;vertical-align:top;">samesite</td><td style="vertical-align:top;">:</td><td><div></div></td></tr><tr><td style="font-weight:bold;vertical-align:top;">secure</td><td style="vertical-align:top;">:</td><td><div></div></td></tr><tr><td style="font-weight:bold;vertical-align:top;">version</td><td style="vertical-align:top;">:</td><td><div></div></td></tr></table></div></td></tr><tr><td style="font-weight:bold;vertical-align:top;">session_id_welcome</td><td style="vertical-align:top;">:</td><td><div>127.0.0.1-2bbbd56b-5747-4a67-af53-9bb7f0cbce3c<table><tr><td style="font-weight:bold;vertical-align:top;">comment</td><td style="vertical-align:top;">:</td><td><div></div></td></tr><tr><td style="font-weight:bold;vertical-align:top;">domain</td><td style="vertical-align:top;">:</td><td><div></div></td></tr><tr><td style="font-weight:bold;vertical-align:top;">expires</td><td style="vertical-align:top;">:</td><td><div></div></td></tr><tr><td style="font-weight:bold;vertical-align:top;">httponly</td><td style="vertical-align:top;">:</td><td><div></div></td></tr><tr><td style="font-weight:bold;vertical-align:top;">max-age</td><td style="vertical-align:top;">:</td><td><div></div></td></tr><tr><td style="font-weight:bold;vertical-align:top;">path</td><td style="vertical-align:top;">:</td><td><div></div></td></tr><tr><td style="font-weight:bold;vertical-align:top;">samesite</td><td style="vertical-align:top;">:</td><td><div></div></td></tr><tr><td style="font-weight:bold;vertical-align:top;">secure</td><td style="vertical-align:top;">:</td><td><div></div></td></tr><tr><td style="font-weight:bold;vertical-align:top;">version</td><td style="vertical-align:top;">:</td><td><div></div></td></tr></table></div></td></tr></table></div></td></tr><tr><td style="font-weight:bold;vertical-align:top;">env</td><td style="vertical-align:top;">:</td><td><div><table><tr><td style="font-weight:bold;vertical-align:top;">HTTP_ACCEPT</td><td style="vertical-align:top;">:</td><td><div>text/html,application/xhtml+xml,application/xml;q=0.9,image/webp,image/apng,*/*;q=0.8,application/signed-exchange;v=b3</div></td></tr><tr><td style="font-weight:bold;vertical-align:top;">HTTP_ACCEPT_ENCODING</td><td style="vertical-align:top;">:</td><td><div>gzip, deflate, br</div></td></tr><tr><td style="font-weight:bold;vertical-align:top;">HTTP_ACCEPT_LANGUAGE</td><td style="vertical-align:top;">:</td><td><div>pt-BR,pt;q=0.9,en-US;q=0.8,en;q=0.7</div></td></tr><tr><td style="font-weight:bold;vertical-align:top;">HTTP_CONNECTION</td><td style="vertical-align:top;">:</td><td><div>keep-alive</div></td></tr><tr><td style="font-weight:bold;vertical-align:top;">HTTP_COOKIE</td><td style="vertical-align:top;">:</td><td><div>session_id_admin=127.0.0.1-e8988dcb-98ca-4128-ab42-f9c54fea6b35; session_id_welcome=127.0.0.1-2bbbd56b-5747-4a67-af53-9bb7f0cbce3c; session_id_paywall=127.0.0.1-f637e2ad-2f55-43b0-b2b5-fc9da42a82f9</div></td></tr><tr><td style="font-weight:bold;vertical-align:top;">HTTP_HOST</td><td style="vertical-align:top;">:</td><td><div>127.0.0.1:8000</div></td></tr><tr><td style="font-weight:bold;vertical-align:top;">HTTP_REFERER</td><td style="vertical-align:top;">:</td><td><div>http://127.0.0.1:8000/paywall/default/index</div></td></tr><tr><td style="font-weight:bold;vertical-align:top;">HTTP_UPGRADE_INSECURE_REQUESTS</td><td style="vertical-align:top;">:</td><td><div>1</div></td></tr><tr><td style="font-weight:bold;vertical-align:top;">HTTP_USER_AGENT</td><td style="vertical-align:top;">:</td><td><div>Mozilla/5.0 (Windows NT 10.0; Win64; x64) AppleWebKit/537.36 (KHTML, like Gecko) Chrome/73.0.3683.86 Safari/537.36</div></td></tr><tr><td style="font-weight:bold;vertical-align:top;">PATH_INFO</td><td style="vertical-align:top;">:</td><td><div>/paywall/default/index</div></td></tr><tr><td style="font-weight:bold;vertical-align:top;">QUERY_STRING</td><td style="vertical-align:top;">:</td><td><div>url=https%3A%2F%2Fwww.em.com.br%2Fapp%2Fnoticia%2Fgerais%2F2019%2F03%2F28%2Finterna_gerais%2C1041796%2Fdesaparecido-em-brumadinho-e-localizado-vivo-apos-dois-meses.shtml</div></td></tr><tr><td style="font-weight:bold;vertical-align:top;">REMOTE_ADDR</td><td style="vertical-align:top;">:</td><td><div>127.0.0.1</div></td></tr><tr><td style="font-weight:bold;vertical-align:top;">REMOTE_PORT</td><td style="vertical-align:top;">:</td><td><div>65099</div></td></tr><tr><td style="font-weight:bold;vertical-align:top;">REQUEST_METHOD</td><td style="vertical-align:top;">:</td><td><div>GET</div></td></tr><tr><td style="font-weight:bold;vertical-align:top;">SCRIPT_NAME</td><td style="vertical-align:top;">:</td><td><div></div></td></tr><tr><td style="font-weight:bold;vertical-align:top;">SERVER_NAME</td><td style="vertical-align:top;">:</td><td><div>E7502</div></td></tr><tr><td style="font-weight:bold;vertical-align:top;">SERVER_PORT</td><td style="vertical-align:top;">:</td><td><div>8000</div></td></tr><tr><td style="font-weight:bold;vertical-align:top;">SERVER_PROTOCOL</td><td style="vertical-align:top;">:</td><td><div>HTTP/1.1</div></td></tr><tr><td style="font-weight:bold;vertical-align:top;">SERVER_SOFTWARE</td><td style="vertical-align:top;">:</td><td><div>Rocket 1.2.6</div></td></tr><tr><td style="font-weight:bold;vertical-align:top;">app_folders</td><td style="vertical-align:top;">:</td><td><div>set([&#x27;c:\\\\web2py\\\\applications\\\\admin\\\\&#x27;, &#x27;c:\\\\web2py\\\\applications\\\\welcome\\\\&#x27;, &#x27;c:\\\\web2py\\\\applications\\\\paywall\\\\&#x27;])</div></td></tr><tr><td style="font-weight:bold;vertical-align:top;">applications_parent</td><td style="vertical-align:top;">:</td><td><div>c:\\web2py</div></td></tr><tr><td style="font-weight:bold;vertical-align:top;">cmd_args</td><td style="vertical-align:top;">:</td><td><div><table></table></div></td></tr><tr><td style="font-weight:bold;vertical-align:top;">cmd_options</td><td style="vertical-align:top;">:</td><td><div>&lt;Values at 0x41450c8: {&#x27;verbose&#x27;: False, &#x27;ip&#x27;: &#x27;127.0.0.1&#x27;, &#x27;debuglevel&#x27;: 30, &#x27;with_scheduler&#x27;: False, &#x27;shutdown_timeout&#x27;: 5, &#x27;taskbar&#x27;: False, &#x27;with_coverage&#x27;: False, &#x27;pid_filename&#x27;: &#x27;httpserver.pid&#x27;, &#x27;maxthreads&#x27;: None, &#x27;softcron&#x27;: False, &#x27;server_name&#x27;: &#x27;E7502&#x27;, &#x27;bpython&#x27;: False, &#x27;nogui&#x27;: False, &#x27;port&#x27;: 8000, &#x27;print_errors&#x27;: False, &#x27;extcron&#x27;: False, &#x27;runcron&#x27;: False, &#x27;run_system_tests&#x27;: False, &#x27;test&#x27;: None, &#x27;folder&#x27;: &#x27;c:\\\\web2py&#x27;, &#x27;config&#x27;: &#x27;&#x27;, &#x27;minthreads&#x27;: None, &#x27;shell&#x27;: None, &#x27;run&#x27;: &#x27;&#x27;, &#x27;log_filename&#x27;: &#x27;httpserver.log&#x27;, &#x27;profiler_dir&#x27;: None, &#x27;args&#x27;: [&#x27;&#x27;], &#x27;socket_timeout&#x27;: 5, &#x27;ssl_ca_certificate&#x27;: None, &#x27;scheduler&#x27;: None, &#x27;interfaces&#x27;: None, &#x27;ssl_private_key&#x27;: &#x27;&#x27;, &#x27;gae&#x27;: None, &#x27;password&#x27;: &#x27;******&#x27;, &#x27;request_queue_size&#x27;: 5, &#x27;ssl_certificate&#x27;: &#x27;&#x27;, &#x27;cronjob&#x27;: False, &#x27;numthreads&#x27;: None, &#x27;quiet&#x27;: False, &#x27;import_models&#x27;: False, &#x27;timeout&#x27;: 10, &#x27;plain&#x27;: False, &#x27;nobanner&#x27;: False}&gt;</div></td></tr><tr><td style="font-weight:bold;vertical-align:top;">db_sessions</td><td style="vertical-align:top;">:</td><td><div>set([])</div></td></tr><tr><td style="font-weight:bold;vertical-align:top;">debugging</td><td style="vertical-align:top;">:</td><td><div>True</div></td></tr><tr><td style="font-weight:bold;vertical-align:top;">gluon_parent</td><td style="vertical-align:top;">:</td><td><div>c:\\web2py</div></td></tr><tr><td style="font-weight:bold;vertical-align:top;">http_accept</td><td style="vertical-align:top;">:</td><td><div>text/html,application/xhtml+xml,application/xml;q=0.9,image/webp,image/apng,*/*;q=0.8,application/signed-exchange;v=b3</div></td></tr><tr><td style="font-weight:bold;vertical-align:top;">http_accept_encoding</td><td style="vertical-align:top;">:</td><td><div>gzip, deflate, br</div></td></tr><tr><td style="font-weight:bold;vertical-align:top;">http_accept_language</td><td style="vertical-align:top;">:</td><td><div>pt-BR,pt;q=0.9,en-US;q=0.8,en;q=0.7</div></td></tr><tr><td style="font-weight:bold;vertical-align:top;">http_connection</td><td style="vertical-align:top;">:</td><td><div>keep-alive</div></td></tr><tr><td style="font-weight:bold;vertical-align:top;">http_cookie</td><td style="vertical-align:top;">:</td><td><div>session_id_admin=127.0.0.1-e8988dcb-98ca-4128-ab42-f9c54fea6b35; session_id_welcome=127.0.0.1-2bbbd56b-5747-4a67-af53-9bb7f0cbce3c; session_id_paywall=127.0.0.1-f637e2ad-2f55-43b0-b2b5-fc9da42a82f9</div></td></tr><tr><td style="font-weight:bold;vertical-align:top;">http_host</td><td style="vertical-align:top;">:</td><td><div>127.0.0.1:8000</div></td></tr><tr><td style="font-weight:bold;vertical-align:top;">http_referer</td><td style="vertical-align:top;">:</td><td><div>http://127.0.0.1:8000/paywall/default/index</div></td></tr><tr><td style="font-weight:bold;vertical-align:top;">http_upgrade_insecure_requests</td><td style="vertical-align:top;">:</td><td><div>1</div></td></tr><tr><td style="font-weight:bold;vertical-align:top;">http_user_agent</td><td style="vertical-align:top;">:</td><td><div>Mozilla/5.0 (Windows NT 10.0; Win64; x64) AppleWebKit/537.36 (KHTML, like Gecko) Chrome/73.0.3683.86 Safari/537.36</div></td></tr><tr><td style="font-weight:bold;vertical-align:top;">is_jython</td><td style="vertical-align:top;">:</td><td><div>False</div></td></tr><tr><td style="font-weight:bold;vertical-align:top;">is_py2</td><td style="vertical-align:top;">:</td><td><div>True</div></td></tr><tr><td style="font-weight:bold;vertical-align:top;">is_pypy</td><td style="vertical-align:top;">:</td><td><div>False</div></td></tr><tr><td style="font-weight:bold;vertical-align:top;">is_source</td><td style="vertical-align:top;">:</td><td><div>True</div></td></tr><tr><td style="font-weight:bold;vertical-align:top;">local_hosts</td><td style="vertical-align:top;">:</td><td><div><table><tr><td><div>E7502.almg.uucp</div></td></tr><tr><td><div>fe80::6c6d:96f0:94e7:b10d%18</div></td></tr><tr><td><div>172.20.8.1</div></td></tr><tr><td><div>::ffff:127.0.0.1</div></td></tr><tr><td><div>::1</div></td></tr><tr><td><div>E7502</div></td></tr><tr><td><div>fe80::e8a7:9bb:7428:ddca%6</div></td></tr><tr><td><div>10.1.1.1</div></td></tr><tr><td><div>127.0.0.1</div></td></tr></table></div></td></tr><tr><td style="font-weight:bold;vertical-align:top;">path_info</td><td style="vertical-align:top;">:</td><td><div>/paywall/default/index</div></td></tr><tr><td style="font-weight:bold;vertical-align:top;">query_string</td><td style="vertical-align:top;">:</td><td><div>url=https%3A%2F%2Fwww.em.com.br%2Fapp%2Fnoticia%2Fgerais%2F2019%2F03%2F28%2Finterna_gerais%2C1041796%2Fdesaparecido-em-brumadinho-e-localizado-vivo-apos-dois-meses.shtml</div></td></tr><tr><td style="font-weight:bold;vertical-align:top;">remote_addr</td><td style="vertical-align:top;">:</td><td><div>127.0.0.1</div></td></tr><tr><td style="font-weight:bold;vertical-align:top;">remote_port</td><td style="vertical-align:top;">:</td><td><div>65099</div></td></tr><tr><td style="font-weight:bold;vertical-align:top;">request_method</td><td style="vertical-align:top;">:</td><td><div>GET</div></td></tr><tr><td style="font-weight:bold;vertical-align:top;">request_uri</td><td style="vertical-align:top;">:</td><td><div>/paywall/default/index?url=https%3A%2F%2Fwww.em.com.br%2Fapp%2Fnoticia%2Fgerais%2F2019%2F03%2F28%2Finterna_gerais%2C1041796%2Fdesaparecido-em-brumadinho-e-localizado-vivo-apos-dois-meses.shtml</div></td></tr><tr><td style="font-weight:bold;vertical-align:top;">script_name</td><td style="vertical-align:top;">:</td><td><div></div></td></tr><tr><td style="font-weight:bold;vertical-align:top;">server_name</td><td style="vertical-align:top;">:</td><td><div>E7502</div></td></tr><tr><td style="font-weight:bold;vertical-align:top;">server_port</td><td style="vertical-align:top;">:</td><td><div>8000</div></td></tr><tr><td style="font-weight:bold;vertical-align:top;">server_protocol</td><td style="vertical-align:top;">:</td><td><div>HTTP/1.1</div></td></tr><tr><td style="font-weight:bold;vertical-align:top;">server_software</td><td style="vertical-align:top;">:</td><td><div>Rocket 1.2.6</div></td></tr><tr><td style="font-weight:bold;vertical-align:top;">web2py_path</td><td style="vertical-align:top;">:</td><td><div>c:\\web2py</div></td></tr><tr><td style="font-weight:bold;vertical-align:top;">web2py_version</td><td style="vertical-align:top;">:</td><td><div>2.18.4-stable+timestamp.2019.03.13.05.27.54</div></td></tr><tr><td style="font-weight:bold;vertical-align:top;">wsgi.errors</td><td style="vertical-align:top;">:</td><td><div>&lt;open file &#x27;&lt;stderr&gt;&#x27;, mode &#x27;w&#x27; at 0x0000000002C5B150&gt;</div></td></tr><tr><td style="font-weight:bold;vertical-align:top;">wsgi.file_wrapper</td><td style="vertical-align:top;">:</td><td><div>&lt;class wsgiref.util.FileWrapper at 0x00000000040FAA68&gt;</div></td></tr><tr><td style="font-weight:bold;vertical-align:top;">wsgi.input</td><td style="vertical-align:top;">:</td><td><div>&lt;socket._fileobject object at 0x0000000004E92B88&gt;</div></td></tr><tr><td style="font-weight:bold;vertical-align:top;">wsgi.multiprocess</td><td style="vertical-align:top;">:</td><td><div>False</div></td></tr><tr><td style="font-weight:bold;vertical-align:top;">wsgi.multithread</td><td style="vertical-align:top;">:</td><td><div>True</div></td></tr><tr><td style="font-weight:bold;vertical-align:top;">wsgi.run_once</td><td style="vertical-align:top;">:</td><td><div>False</div></td></tr><tr><td style="font-weight:bold;vertical-align:top;">wsgi.url_scheme</td><td style="vertical-align:top;">:</td><td><div>http</div></td></tr><tr><td style="font-weight:bold;vertical-align:top;">wsgi.version</td><td style="vertical-align:top;">:</td><td><div><table><tr><td><div>1</div></td></tr><tr><td><div>0</div></td></tr></table></div></td></tr><tr><td style="font-weight:bold;vertical-align:top;">wsgi_errors</td><td style="vertical-align:top;">:</td><td><div>&lt;open file &#x27;&lt;stderr&gt;&#x27;, mode &#x27;w&#x27; at 0x0000000002C5B150&gt;</div></td></tr><tr><td style="font-weight:bold;vertical-align:top;">wsgi_file_wrapper</td><td style="vertical-align:top;">:</td><td><div>&lt;class wsgiref.util.FileWrapper at 0x00000000040FAA68&gt;</div></td></tr><tr><td style="font-weight:bold;vertical-align:top;">wsgi_input</td><td style="vertical-align:top;">:</td><td><div>&lt;socket._fileobject object at 0x0000000004E92B88&gt;</div></td></tr><tr><td style="font-weight:bold;vertical-align:top;">wsgi_multiprocess</td><td style="vertical-align:top;">:</td><td><div>False</div></td></tr><tr><td style="font-weight:bold;vertical-align:top;">wsgi_multithread</td><td style="vertical-align:top;">:</td><td><div>True</div></td></tr><tr><td style="font-weight:bold;vertical-align:top;">wsgi_run_once</td><td style="vertical-align:top;">:</td><td><div>False</div></td></tr><tr><td style="font-weight:bold;vertical-align:top;">wsgi_url_scheme</td><td style="vertical-align:top;">:</td><td><div>http</div></td></tr><tr><td style="font-weight:bold;vertical-align:top;">wsgi_version</td><td style="vertical-align:top;">:</td><td><div><table><tr><td><div>1</div></td></tr><tr><td><div>0</div></td></tr></table></div></td></tr></table></div></td></tr><tr><td style="font-weight:bold;vertical-align:top;">extension</td><td style="vertical-align:top;">:</td><td><div>html</div></td></tr><tr><td style="font-weight:bold;vertical-align:top;">folder</td><td style="vertical-align:top;">:</td><td><div>c:\\web2py\\applications\\paywall\\</div></td></tr><tr><td style="font-weight:bold;vertical-align:top;">function</td><td style="vertical-align:top;">:</td><td><div>index</div></td></tr><tr><td style="font-weight:bold;vertical-align:top;">global_settings</td><td style="vertical-align:top;">:</td><td><div><table><tr><td style="font-weight:bold;vertical-align:top;">app_folders</td><td style="vertical-align:top;">:</td><td><div>set([&#x27;c:\\\\web2py\\\\applications\\\\admin\\\\&#x27;, &#x27;c:\\\\web2py\\\\applications\\\\welcome\\\\&#x27;, &#x27;c:\\\\web2py\\\\applications\\\\paywall\\\\&#x27;])</div></td></tr><tr><td style="font-weight:bold;vertical-align:top;">applications_parent</td><td style="vertical-align:top;">:</td><td><div>c:\\web2py</div></td></tr><tr><td style="font-weight:bold;vertical-align:top;">cmd_args</td><td style="vertical-align:top;">:</td><td><div><table></table></div></td></tr><tr><td style="font-weight:bold;vertical-align:top;">cmd_options</td><td style="vertical-align:top;">:</td><td><div>&lt;Values at 0x41450c8: {&#x27;verbose&#x27;: False, &#x27;ip&#x27;: &#x27;127.0.0.1&#x27;, &#x27;debuglevel&#x27;: 30, &#x27;with_scheduler&#x27;: False, &#x27;shutdown_timeout&#x27;: 5, &#x27;taskbar&#x27;: False, &#x27;with_coverage&#x27;: False, &#x27;pid_filename&#x27;: &#x27;httpserver.pid&#x27;, &#x27;maxthreads&#x27;: None, &#x27;softcron&#x27;: False, &#x27;server_name&#x27;: &#x27;E7502&#x27;, &#x27;bpython&#x27;: False, &#x27;nogui&#x27;: False, &#x27;port&#x27;: 8000, &#x27;print_errors&#x27;: False, &#x27;extcron&#x27;: False, &#x27;runcron&#x27;: False, &#x27;run_system_tests&#x27;: False, &#x27;test&#x27;: None, &#x27;folder&#x27;: &#x27;c:\\\\web2py&#x27;, &#x27;config&#x27;: &#x27;&#x27;, &#x27;minthreads&#x27;: None, &#x27;shell&#x27;: None, &#x27;run&#x27;: &#x27;&#x27;, &#x27;log_filename&#x27;: &#x27;httpserver.log&#x27;, &#x27;profiler_dir&#x27;: None, &#x27;args&#x27;: [&#x27;&#x27;], &#x27;socket_timeout&#x27;: 5, &#x27;ssl_ca_certificate&#x27;: None, &#x27;scheduler&#x27;: None, &#x27;interfaces&#x27;: None, &#x27;ssl_private_key&#x27;: &#x27;&#x27;, &#x27;gae&#x27;: None, &#x27;password&#x27;: &#x27;******&#x27;, &#x27;request_queue_size&#x27;: 5, &#x27;ssl_certificate&#x27;: &#x27;&#x27;, &#x27;cronjob&#x27;: False, &#x27;numthreads&#x27;: None, &#x27;quiet&#x27;: False, &#x27;import_models&#x27;: False, &#x27;timeout&#x27;: 10, &#x27;plain&#x27;: False, &#x27;nobanner&#x27;: False}&gt;</div></td></tr><tr><td style="font-weight:bold;vertical-align:top;">db_sessions</td><td style="vertical-align:top;">:</td><td><div>set([])</div></td></tr><tr><td style="font-weight:bold;vertical-align:top;">debugging</td><td style="vertical-align:top;">:</td><td><div>True</div></td></tr><tr><td style="font-weight:bold;vertical-align:top;">gluon_parent</td><td style="vertical-align:top;">:</td><td><div>c:\\web2py</div></td></tr><tr><td style="font-weight:bold;vertical-align:top;">is_jython</td><td style="vertical-align:top;">:</td><td><div>False</div></td></tr><tr><td style="font-weight:bold;vertical-align:top;">is_py2</td><td style="vertical-align:top;">:</td><td><div>True</div></td></tr><tr><td style="font-weight:bold;vertical-align:top;">is_pypy</td><td style="vertical-align:top;">:</td><td><div>False</div></td></tr><tr><td style="font-weight:bold;vertical-align:top;">is_source</td><td style="vertical-align:top;">:</td><td><div>True</div></td></tr><tr><td style="font-weight:bold;vertical-align:top;">local_hosts</td><td style="vertical-align:top;">:</td><td><div><table><tr><td><div>E7502.almg.uucp</div></td></tr><tr><td><div>fe80::6c6d:96f0:94e7:b10d%18</div></td></tr><tr><td><div>172.20.8.1</div></td></tr><tr><td><div>::ffff:127.0.0.1</div></td></tr><tr><td><div>::1</div></td></tr><tr><td><div>E7502</div></td></tr><tr><td><div>fe80::e8a7:9bb:7428:ddca%6</div></td></tr><tr><td><div>10.1.1.1</div></td></tr><tr><td><div>127.0.0.1</div></td></tr></table></div></td></tr><tr><td style="font-weight:bold;vertical-align:top;">web2py_version</td><td style="vertical-align:top;">:</td><td><div>2.18.4-stable+timestamp.2019.03.13.05.27.54</div></td></tr></table></div></td></tr><tr><td style="font-weight:bold;vertical-align:top;">is_https</td><td style="vertical-align:top;">:</td><td><div>False</div></td></tr><tr><td style="font-weight:bold;vertical-align:top;">is_local</td><td style="vertical-align:top;">:</td><td><div>True</div></td></tr><tr><td style="font-weight:bold;vertical-align:top;">is_restful</td><td style="vertical-align:top;">:</td><td><div>False</div></td></tr><tr><td style="font-weight:bold;vertical-align:top;">is_scheduler</td><td style="vertical-align:top;">:</td><td><div>False</div></td></tr><tr><td style="font-weight:bold;vertical-align:top;">is_shell</td><td style="vertical-align:top;">:</td><td><div>False</div></td></tr><tr><td style="font-weight:bold;vertical-align:top;">method</td><td style="vertical-align:top;">:</td><td><div>GET</div></td></tr><tr><td style="font-weight:bold;vertical-align:top;">now</td><td style="vertical-align:top;">:</td><td><div>datetime.datetime(2019, 3, 28, 13, 30, 2, 444000)</div></td></tr><tr><td style="font-weight:bold;vertical-align:top;">raw_args</td><td style="vertical-align:top;">:</td><td><div></div></td></tr><tr><td style="font-weight:bold;vertical-align:top;">raw_extension</td><td style="vertical-align:top;">:</td><td><div>None</div></td></tr><tr><td style="font-weight:bold;vertical-align:top;">url</td><td style="vertical-align:top;">:</td><td><div>/paywall/default/index</div></td></tr><tr><td style="font-weight:bold;vertical-align:top;">utcnow</td><td style="vertical-align:top;">:</td><td><div>datetime.datetime(2019, 3, 28, 16, 30, 2, 444000)</div></td></tr><tr><td style="font-weight:bold;vertical-align:top;">wsgi</td><td style="vertical-align:top;">:</td><td><div>&lt;gluon.main.LazyWSGI object at 0x000000000BB8A668&gt;</div></td></tr></table></div>'
tRp73
sS'frames'
p74
(lp75
(dp76
S'file'
p77
S'c:\\web2py\\gluon\\restricted.py'
p78
sS'dump'
p79
(dp80
S'environment'
p81
S"{'A': <class 'gluon.html.A'>, 'ANY_OF': <class 'pydal.validators.ANY_OF'>, 'ASSIGNJS': <function ASSIGNJS>, 'AppConfig': <function AppConfig>, 'Auth': <class 'gluon.tools.Auth'>, 'B': <class 'gluon.html.B'>, 'BEAUTIFY': <class 'gluon.html.BEAUTIFY'>, 'BODY': <class 'gluon.html.BODY'>, 'BR': <class 'gluon.html.BR'>, 'BUTTON': <class 'gluon.html.BUTTON'>, ...}"
p82
sS'ccode'
p83
S'<code object <module> at 0000000004BD0CB0, file ...ications\\paywall\\controllers/default.py", line 6>'
p84
ssS'lnum'
p85
I219
sS'lines'
p86
(dp87
I214
S'    if environment is None:'
p88
sI215
S'        environment = {}'
p89
sI216
S"    environment['__file__'] = layer"
p90
sI217
S"    environment['__name__'] = '__restricted__'"
p91
sI218
S'    try:'
p92
sI219
S'        exec(ccode, environment)'
p93
sI220
S'    except HTTP:'
p94
sI221
S'        raise'
p95
sI222
S'    except RestrictedError:'
p96
sI223
S'        # do not encapsulate (obfuscate) the original RestrictedError'
p97
ssS'call'
p98
S'(ccode=<code object <module> at 0000000004BD0CB0, file ...ications\\paywall\\controllers/default.py", line 6>, environment={\'A\': <class \'gluon.html.A\'>, \'ANY_OF\': <class \'pydal.validators.ANY_OF\'>, \'ASSIGNJS\': <function ASSIGNJS>, \'AppConfig\': <function AppConfig>, \'Auth\': <class \'gluon.tools.Auth\'>, \'B\': <class \'gluon.html.B\'>, \'BEAUTIFY\': <class \'gluon.html.BEAUTIFY\'>, \'BODY\': <class \'gluon.html.BODY\'>, \'BR\': <class \'gluon.html.BR\'>, \'BUTTON\': <class \'gluon.html.BUTTON\'>, ...}, layer=r\'c:\\web2py\\applications\\paywall\\controllers/default.py\', scode=<code object <module> at 0000000004BD0CB0, file ...ications\\paywall\\controllers/default.py", line 6>)'
p99
sS'func'
p100
S'restricted'
p101
sa(dp102
g77
S'c:\\web2py\\applications\\paywall\\controllers\\default.py'
p103
sg79
(dp104
sg85
I69
sg86
(dp105
I64
S'    allows downloading of uploaded files'
p106
sI65
S'    http://..../[app]/default/download/[filename]'
p107
sI66
S'    """'
p108
sI67
S'    return response.download(request, db)'
p109
sI58
S'    return dict(form=auth())'
p110
sI59
S''
sI60
S'# ---- action to server uploaded static content (required) ---'
p111
sI61
S'@cache.action()'
p112
sI62
S'def download():'
p113
sI63
S'    """'
p114
ssg98
S'()'
p115
sg100
S'<module>'
p116
sa(dp117
g77
S'c:\\web2py\\gluon\\globals.py'
p118
sg79
(dp119
S'self'
p120
S'undefined'
p121
sS'f'
S'<function index>'
p122
ssg85
I421
sg86
(dp123
I416
S"        self.flash = ''            # used by the default view layout"
p124
sI417
S'        self.meta = Storage()      # used by web2py_ajax.html'
p125
sI418
S'        self.menu = []             # used by the default view layout'
p126
sI419
S'        self.files = []            # used by web2py_ajax.html'
p127
sI420
S'        self._vars = None'
p128
sI421
S'        self._caller = lambda f: f()'
p129
sI422
S'        self._view_environment = None'
p130
sI423
S'        self._custom_commit = None'
p131
sI424
S'        self._custom_rollback = None'
p132
sI425
S"        self.generic_patterns = ['*']"
p133
ssg98
S'(f=<function index>)'
p134
sg100
S'<lambda>'
p135
sa(dp136
g77
S'c:\\web2py\\applications\\paywall\\controllers\\default.py'
p137
sg79
(dp138
S'global paywall'
p139
S"<module 'applications.paywall.modules.paywall' from 'applications\\paywall\\modules\\paywall.py'>"
p140
sS'paywall.pw_break'
p141
S'<function pw_break>'
p142
sS'global request'
p143
S"<Storage {'function': 'index', 'cookies': <Simpl...False, 'is_https': False, 'client': '127.0.0.1'}>"
p144
sS'filename'
p145
S"''"
p146
sS'request.vars'
p147
S"<Storage {'url': 'https://www.em.com.br/app/noti...adinho-e-localizado-vivo-apos-dois-meses.shtml'}>"
p148
sS'request.vars.url'
p149
S"'https://www.em.com.br/app/noticia/gerais/2019/03...rumadinho-e-localizado-vivo-apos-dois-meses.shtml'"
p150
ssg85
I13
sg86
(dp151
I8
S'# ---- example index page ----'
p152
sI9
S'def index():'
p153
sI10
S'    response.flash = T("Hello World")'
p154
sI11
S"    filename = ''"
p155
sI12
S"    #return dict(message=T('Welcome to web2py!'))"
p156
sI13
S'    if request.vars.url: filename = paywall.pw_break(request.vars.url)'
p157
sI14
S'    return dict('
p158
sI15
S"        message=T('Welcome to web2py!'),"
p159
sI16
S'        url=request.vars.url,'
p160
sI17
S'        filename=filename,'
p161
ssg98
S'()'
p162
sg100
S'index'
p163
sa(dp164
g77
S'c:\\web2py\\applications\\paywall\\modules\\paywall.py'
p165
sg79
(dp166
S'requests.get'
p167
S'<function get>'
p168
sS'url'
p169
S"'https://www.em.com.br/app/noticia/gerais/2019/03...rumadinho-e-localizado-vivo-apos-dois-meses.shtml'"
p170
sS'resp'
p171
g121
sS'proxies'
p172
S"{'http': 'http://proxy.almg.uucp:3128/', 'https': 'http://proxy.almg.uucp:3128/'}"
p173
sS'global requests'
p174
S"<module 'requests' from 'C:\\Python27\\lib\\site-packages\\requests\\__init__.pyc'>"
p175
ssg85
I41
sg86
(dp176
I36
S"    filename = '{0}.html'.format( hashlib.md5(url).hexdigest() )"
p177
sI37
S"    #path = os.path.join(request.folder, 'static', filename)"
p178
sI38
S"    path = os.path.join('c:\\\\web2py\\\\applications\\\\paywall', 'static', filename)"
p179
sI39
S''
sI40
S'    #resp = requests.get(url,proxies=proxies,verify=False)'
p180
sI41
S'    resp = requests.get(url,proxies=proxies)'
p181
sI42
S"    text = resp.text.encode('utf-8')"
p182
sI43
S''
sI44
S'    page = bs.BeautifulSoup(text)'
p183
sI45
S''
ssg98
S"(url='https://www.em.com.br/app/noticia/gerais/2019/03...rumadinho-e-localizado-vivo-apos-dois-meses.shtml')"
p184
sg100
S'pw_break'
p185
sa(dp186
g77
S'C:\\Python27\\lib\\site-packages\\requests\\api.py'
p187
sg79
(dp188
S'global request'
p189
S'<function request>'
p190
sS'url'
p191
S"'https://www.em.com.br/app/noticia/gerais/2019/03...rumadinho-e-localizado-vivo-apos-dois-meses.shtml'"
p192
sS'params'
p193
S'None'
p194
sS'kwargs'
p195
S"{'allow_redirects': True, 'proxies': {'http': 'http://proxy.almg.uucp:3128/', 'https': 'http://proxy.almg.uucp:3128/'}}"
p196
ssg85
I75
sg86
(dp197
I70
S'    :return: :class:`Response <Response>` object'
p198
sI71
S'    :rtype: requests.Response'
p199
sI72
S'    """'
p200
sI73
S''
sI74
S"    kwargs.setdefault('allow_redirects', True)"
p201
sI75
S"    return request('get', url, params=params, **kwargs)"
p202
sI76
S''
sI77
S''
sI78
S'def options(url, **kwargs):'
p203
sI79
S'    r"""Sends an OPTIONS request.'
p204
ssg98
S"(url='https://www.em.com.br/app/noticia/gerais/2019/03...rumadinho-e-localizado-vivo-apos-dois-meses.shtml', params=None, **kwargs={'allow_redirects': True, 'proxies': {'http': 'http://proxy.almg.uucp:3128/', 'https': 'http://proxy.almg.uucp:3128/'}})"
p205
sg100
S'get'
p206
sa(dp207
g77
S'C:\\Python27\\lib\\site-packages\\requests\\api.py'
p208
sg79
(dp209
S'url'
p210
S"'https://www.em.com.br/app/noticia/gerais/2019/03...rumadinho-e-localizado-vivo-apos-dois-meses.shtml'"
p211
sS'session'
p212
S'<requests.sessions.Session object>'
p213
sS'method'
p214
S"'get'"
p215
sS'session.request'
p216
S'<bound method Session.request of <requests.sessions.Session object>>'
p217
sS'kwargs'
p218
S"{'allow_redirects': True, 'params': None, 'proxies': {'http': 'http://proxy.almg.uucp:3128/', 'https': 'http://proxy.almg.uucp:3128/'}}"
p219
ssg85
I60
sg86
(dp220
I64
S'    r"""Sends a GET request.'
p221
sI55
S''
sI56
S"    # By using the 'with' statement we are sure the session is closed, thus we"
p222
sI57
S'    # avoid leaving sockets open which can trigger a ResourceWarning in some'
p223
sI58
S'    # cases, and look like a memory leak in others.'
p224
sI59
S'    with sessions.Session() as session:'
p225
sI60
S'        return session.request(method=method, url=url, **kwargs)'
p226
sI61
S''
sI62
S''
sI63
S'def get(url, params=None, **kwargs):'
p227
ssg98
S"(method='get', url='https://www.em.com.br/app/noticia/gerais/2019/03...rumadinho-e-localizado-vivo-apos-dois-meses.shtml', **kwargs={'allow_redirects': True, 'params': None, 'proxies': {'http': 'http://proxy.almg.uucp:3128/', 'https': 'http://proxy.almg.uucp:3128/'}})"
p228
sg100
g60
sa(dp229
g77
S'C:\\Python27\\lib\\site-packages\\requests\\sessions.py'
p230
sg79
(dp231
S'resp'
p232
g121
sS'send_kwargs'
p233
S"{'allow_redirects': True, 'cert': None, 'proxies': OrderedDict([('http', 'http://proxy.almg.uucp:3128/'), ('https', 'http://proxy.almg.uucp:3128/')]), 'stream': False, 'timeout': None, 'verify': True}"
p234
sS'prep'
p235
S'<PreparedRequest [GET]>'
p236
sS'self'
p237
S'<requests.sessions.Session object>'
p238
sS'self.send'
p239
S'<bound method Session.send of <requests.sessions.Session object>>'
p240
ssg85
I533
sg86
(dp241
I528
S'        send_kwargs = {'
p242
sI529
S"            'timeout': timeout,"
p243
sI530
S"            'allow_redirects': allow_redirects,"
p244
sI531
S'        }'
p245
sI532
S'        send_kwargs.update(settings)'
p246
sI533
S'        resp = self.send(prep, **send_kwargs)'
p247
sI534
S''
sI535
S'        return resp'
p248
sI536
S''
sI537
S'    def get(self, url, **kwargs):'
p249
ssg98
S"(self=<requests.sessions.Session object>, method='get', url='https://www.em.com.br/app/noticia/gerais/2019/03...rumadinho-e-localizado-vivo-apos-dois-meses.shtml', params=None, data=None, headers=None, cookies=None, files=None, auth=None, timeout=None, allow_redirects=True, proxies={'http': 'http://proxy.almg.uucp:3128/', 'https': 'http://proxy.almg.uucp:3128/'}, hooks=None, stream=None, verify=None, cert=None, json=None)"
p250
sg100
g60
sa(dp251
g77
S'C:\\Python27\\lib\\site-packages\\requests\\sessions.py'
p252
sg79
(dp253
S'request'
p254
S'<PreparedRequest [GET]>'
p255
sS'adapter'
p256
S'<requests.adapters.HTTPAdapter object>'
p257
sS'r'
g121
sS'adapter.send'
p258
S'<bound method HTTPAdapter.send of <requests.adapters.HTTPAdapter object>>'
p259
sS'kwargs'
p260
S"{'cert': None, 'proxies': OrderedDict([('http', 'http://proxy.almg.uucp:3128/'), ('https', 'http://proxy.almg.uucp:3128/')]), 'stream': False, 'timeout': None, 'verify': True}"
p261
ssg85
I646
sg86
(dp262
I641
S''
sI642
S'        # Start time (approximately) of the request'
p263
sI643
S'        start = preferred_clock()'
p264
sI644
S''
sI645
S'        # Send the request'
p265
sI646
S'        r = adapter.send(request, **kwargs)'
p266
sI647
S''
sI648
S'        # Total elapsed time of the request (approximately)'
p267
sI649
S'        elapsed = preferred_clock() - start'
p268
sI650
S'        r.elapsed = timedelta(seconds=elapsed)'
p269
ssg98
S"(self=<requests.sessions.Session object>, request=<PreparedRequest [GET]>, **kwargs={'cert': None, 'proxies': OrderedDict([('http', 'http://proxy.almg.uucp:3128/'), ('https', 'http://proxy.almg.uucp:3128/')]), 'stream': False, 'timeout': None, 'verify': True})"
p270
sg100
S'send'
p271
sa(dp272
g77
S'C:\\Python27\\lib\\site-packages\\requests\\adapters.py'
p273
sg79
(dp274
S'e'
S'MaxRetryError("HTTPSConnectionPool(host=\'www.em....red in violation of protocol (_ssl.c:661)\'),))",)'
p275
sS'global SSLError'
p276
S"<class 'requests.exceptions.SSLError'>"
p277
sS'request'
p278
S'<PreparedRequest [GET]>'
p279
ssg85
I514
sg86
(dp280
I512
S'            if isinstance(e.reason, _SSLError):'
p281
sI513
S'                # This branch is for urllib3 v1.22 and later.'
p282
sI514
S'                raise SSLError(e, request=request)'
p283
sI515
S''
sI516
S'            raise ConnectionError(e, request=request)'
p284
sI517
S''
sI518
S'        except ClosedPoolError as e:'
p285
sI509
S'            if isinstance(e.reason, _ProxyError):'
p286
sI510
S'                raise ProxyError(e, request=request)'
p287
sI511
S''
ssg98
S"(self=<requests.adapters.HTTPAdapter object>, request=<PreparedRequest [GET]>, stream=False, timeout=<urllib3.util.timeout.Timeout object>, verify=True, cert=None, proxies=OrderedDict([('http', 'http://proxy.almg.uucp:3128/'), ('https', 'http://proxy.almg.uucp:3128/')]))"
p288
sg100
g271
sasS'pyver'
p289
S'Python 2.7.14: C:\\Python27\\python.exe (prefix: C:\\Python27)'
p290
sS'session'
p291
g72
(S's\x1a\x00\x00\x00<div><table></table></div>'
tRp292
sS'etype'
p293
S"<class 'requests.exceptions.SSLError'>"
p294
sS'date'
p295
S'Thu Mar 28 13:30:17 2019'
p296
sg56
g72
(S's4=\x00\x00<div><table><tr><td style="font-weight:bold;vertical-align:top;">body</td><td style="vertical-align:top;">:</td><td><div>&lt;cStringIO.StringO object at 0x000000000BB8A2D0&gt;</div></td></tr><tr><td style="font-weight:bold;vertical-align:top;">cookies</td><td style="vertical-align:top;">:</td><td><div><table><tr><td style="font-weight:bold;vertical-align:top;">session_id_paywall</td><td style="vertical-align:top;">:</td><td><div>127.0.0.1-0823f756-ebcc-4df0-b47d-990f29321bdb<table><tr><td style="font-weight:bold;vertical-align:top;">comment</td><td style="vertical-align:top;">:</td><td><div></div></td></tr><tr><td style="font-weight:bold;vertical-align:top;">domain</td><td style="vertical-align:top;">:</td><td><div></div></td></tr><tr><td style="font-weight:bold;vertical-align:top;">expires</td><td style="vertical-align:top;">:</td><td><div></div></td></tr><tr><td style="font-weight:bold;vertical-align:top;">httponly</td><td style="vertical-align:top;">:</td><td><div></div></td></tr><tr><td style="font-weight:bold;vertical-align:top;">max-age</td><td style="vertical-align:top;">:</td><td><div></div></td></tr><tr><td style="font-weight:bold;vertical-align:top;">path</td><td style="vertical-align:top;">:</td><td><div>/</div></td></tr><tr><td style="font-weight:bold;vertical-align:top;">samesite</td><td style="vertical-align:top;">:</td><td><div></div></td></tr><tr><td style="font-weight:bold;vertical-align:top;">secure</td><td style="vertical-align:top;">:</td><td><div></div></td></tr><tr><td style="font-weight:bold;vertical-align:top;">version</td><td style="vertical-align:top;">:</td><td><div></div></td></tr></table></div></td></tr></table></div></td></tr><tr><td style="font-weight:bold;vertical-align:top;">delimiters</td><td style="vertical-align:top;">:</td><td><div><table><tr><td><div>{{</div></td></tr><tr><td><div>}}</div></td></tr></table></div></td></tr><tr><td style="font-weight:bold;vertical-align:top;">files</td><td style="vertical-align:top;">:</td><td><div><table></table></div></td></tr><tr><td style="font-weight:bold;vertical-align:top;">flash</td><td style="vertical-align:top;">:</td><td><div>Ol\xc3\xa1 Mundo</div></td></tr><tr><td style="font-weight:bold;vertical-align:top;">form_label_separator</td><td style="vertical-align:top;">:</td><td><div></div></td></tr><tr><td style="font-weight:bold;vertical-align:top;">formstyle</td><td style="vertical-align:top;">:</td><td><div>bootstrap4_inline</div></td></tr><tr><td style="font-weight:bold;vertical-align:top;">generic_patterns</td><td style="vertical-align:top;">:</td><td><div><table><tr><td><div>*</div></td></tr></table></div></td></tr><tr><td style="font-weight:bold;vertical-align:top;">google_analytics_id</td><td style="vertical-align:top;">:</td><td><div>None</div></td></tr><tr><td style="font-weight:bold;vertical-align:top;">headers</td><td style="vertical-align:top;">:</td><td><div><table><tr><td style="font-weight:bold;vertical-align:top;">X-Powered-By</td><td style="vertical-align:top;">:</td><td><div>web2py</div></td></tr></table></div></td></tr><tr><td style="font-weight:bold;vertical-align:top;">menu</td><td style="vertical-align:top;">:</td><td><div><table><tr><td><div><table><tr><td><div>Principal</div></td></tr><tr><td><div>False</div></td></tr><tr><td><div>/paywall/default/index</div></td></tr><tr><td><div><table></table></div></td></tr></table></div></td></tr><tr><td><div><table><tr><td><div>Meus sites</div></td></tr><tr><td><div>False</div></td></tr><tr><td><div>/admin/default/site</div></td></tr></table></div></td></tr><tr><td><div><table><tr><td><div>Esta aplica\xc3\xa7\xc3\xa3o</div></td></tr><tr><td><div>False</div></td></tr><tr><td><div>#</div></td></tr><tr><td><div><table><tr><td><div><table><tr><td><div>Design</div></td></tr><tr><td><div>False</div></td></tr><tr><td><div>/admin/default/design/paywall</div></td></tr></table></div></td></tr><tr><td><div><table><tr><td><div>Controlador</div></td></tr><tr><td><div>False</div></td></tr><tr><td><div>/admin/default/edit/paywall/controllers/default.py</div></td></tr></table></div></td></tr><tr><td><div><table><tr><td><div>Visualiza\xc3\xa7\xc3\xa3o</div></td></tr><tr><td><div>False</div></td></tr><tr><td><div>/admin/default/edit/paywall/views/default/index.html</div></td></tr></table></div></td></tr><tr><td><div><table><tr><td><div>Modelo BD</div></td></tr><tr><td><div>False</div></td></tr><tr><td><div>/admin/default/edit/paywall/models/db.py</div></td></tr></table></div></td></tr><tr><td><div><table><tr><td><div>Modelo de Menu</div></td></tr><tr><td><div>False</div></td></tr><tr><td><div>/admin/default/edit/paywall/models/menu.py</div></td></tr></table></div></td></tr><tr><td><div><table><tr><td><div>Config.ini</div></td></tr><tr><td><div>False</div></td></tr><tr><td><div>/admin/default/edit/paywall/private/appconfig.ini</div></td></tr></table></div></td></tr><tr><td><div><table><tr><td><div>Layout</div></td></tr><tr><td><div>False</div></td></tr><tr><td><div>/admin/default/edit/paywall/views/layout.html</div></td></tr></table></div></td></tr><tr><td><div><table><tr><td><div>Folha de estilo</div></td></tr><tr><td><div>False</div></td></tr><tr><td><div>/admin/default/edit/paywall/static/css/web2py-bootstrap3.css</div></td></tr></table></div></td></tr><tr><td><div><table><tr><td><div>banco de dados</div></td></tr><tr><td><div>False</div></td></tr><tr><td><div>/paywall/appadmin/index</div></td></tr></table></div></td></tr><tr><td><div><table><tr><td><div>Erros</div></td></tr><tr><td><div>False</div></td></tr><tr><td><div>/admin/default/errors/paywall</div></td></tr></table></div></td></tr><tr><td><div><table><tr><td><div>Sobre</div></td></tr><tr><td><div>False</div></td></tr><tr><td><div>/admin/default/about/paywall</div></td></tr></table></div></td></tr></table></div></td></tr></table></div></td></tr><tr><td><div><table><tr><td><div>web2py.com</div></td></tr><tr><td><div>False</div></td></tr><tr><td><div>#</div></td></tr><tr><td><div><table><tr><td><div><table><tr><td><div>Download</div></td></tr><tr><td><div>False</div></td></tr><tr><td><div>http://www.web2py.com/examples/default/download</div></td></tr></table></div></td></tr><tr><td><div><table><tr><td><div>Suporte</div></td></tr><tr><td><div>False</div></td></tr><tr><td><div>http://www.web2py.com/examples/default/support</div></td></tr></table></div></td></tr><tr><td><div><table><tr><td><div>Demo</div></td></tr><tr><td><div>False</div></td></tr><tr><td><div>http://web2py.com/demo_admin</div></td></tr></table></div></td></tr><tr><td><div><table><tr><td><div>Exemplos r\xc3\xa1pidos</div></td></tr><tr><td><div>False</div></td></tr><tr><td><div>http://web2py.com/examples/default/examples</div></td></tr></table></div></td></tr><tr><td><div><table><tr><td><div>Perguntas frequentes</div></td></tr><tr><td><div>False</div></td></tr><tr><td><div>http://web2py.com/AlterEgo</div></td></tr></table></div></td></tr><tr><td><div><table><tr><td><div>V\xc3\xaddeos</div></td></tr><tr><td><div>False</div></td></tr><tr><td><div>http://www.web2py.com/examples/default/videos/</div></td></tr></table></div></td></tr><tr><td><div><table><tr><td><div>Aplica\xc3\xa7\xc3\xb5es gratuitas</div></td></tr><tr><td><div>False</div></td></tr><tr><td><div>http://web2py.com/appliances</div></td></tr></table></div></td></tr><tr><td><div><table><tr><td><div>Plugins</div></td></tr><tr><td><div>False</div></td></tr><tr><td><div>http://web2py.com/plugins</div></td></tr></table></div></td></tr><tr><td><div><table><tr><td><div>Receitas</div></td></tr><tr><td><div>False</div></td></tr><tr><td><div>http://web2pyslices.com/</div></td></tr></table></div></td></tr></table></div></td></tr></table></div></td></tr><tr><td><div><table><tr><td><div>Documenta\xc3\xa7\xc3\xa3o</div></td></tr><tr><td><div>False</div></td></tr><tr><td><div>#</div></td></tr><tr><td><div><table><tr><td><div><table><tr><td><div>Online book</div></td></tr><tr><td><div>False</div></td></tr><tr><td><div>http://www.web2py.com/book</div></td></tr></table></div></td></tr><tr><td><div><table><tr><td><div>Pref\xc3\xa1cio</div></td></tr><tr><td><div>False</div></td></tr><tr><td><div>http://www.web2py.com/book/default/chapter/00</div></td></tr></table></div></td></tr><tr><td><div><table><tr><td><div>Introdu\xc3\xa7\xc3\xa3o</div></td></tr><tr><td><div>False</div></td></tr><tr><td><div>http://www.web2py.com/book/default/chapter/01</div></td></tr></table></div></td></tr><tr><td><div><table><tr><td><div>Python</div></td></tr><tr><td><div>False</div></td></tr><tr><td><div>http://www.web2py.com/book/default/chapter/02</div></td></tr></table></div></td></tr><tr><td><div><table><tr><td><div>Vis\xc3\xa3o Geral</div></td></tr><tr><td><div>False</div></td></tr><tr><td><div>http://www.web2py.com/book/default/chapter/03</div></td></tr></table></div></td></tr><tr><td><div><table><tr><td><div>The Core</div></td></tr><tr><td><div>False</div></td></tr><tr><td><div>http://www.web2py.com/book/default/chapter/04</div></td></tr></table></div></td></tr><tr><td><div><table><tr><td><div>As views</div></td></tr><tr><td><div>False</div></td></tr><tr><td><div>http://www.web2py.com/book/default/chapter/05</div></td></tr></table></div></td></tr><tr><td><div><table><tr><td><div>banco de dados</div></td></tr><tr><td><div>False</div></td></tr><tr><td><div>http://www.web2py.com/book/default/chapter/06</div></td></tr></table></div></td></tr><tr><td><div><table><tr><td><div>Formul\xc3\xa1rios e Validadores</div></td></tr><tr><td><div>False</div></td></tr><tr><td><div>http://www.web2py.com/book/default/chapter/07</div></td></tr></table></div></td></tr><tr><td><div><table><tr><td><div>Email e SMS</div></td></tr><tr><td><div>False</div></td></tr><tr><td><div>http://www.web2py.com/book/default/chapter/08</div></td></tr></table></div></td></tr><tr><td><div><table><tr><td><div>Controle de Acesso</div></td></tr><tr><td><div>False</div></td></tr><tr><td><div>http://www.web2py.com/book/default/chapter/09</div></td></tr></table></div></td></tr><tr><td><div><table><tr><td><div>Servi\xc3\xa7o</div></td></tr><tr><td><div>False</div></td></tr><tr><td><div>http://www.web2py.com/book/default/chapter/10</div></td></tr></table></div></td></tr><tr><td><div><table><tr><td><div>Receitas de Ajax</div></td></tr><tr><td><div>False</div></td></tr><tr><td><div>http://www.web2py.com/book/default/chapter/11</div></td></tr></table></div></td></tr><tr><td><div><table><tr><td><div>Componentes e Plugins</div></td></tr><tr><td><div>False</div></td></tr><tr><td><div>http://www.web2py.com/book/default/chapter/12</div></td></tr></table></div></td></tr><tr><td><div><table><tr><td><div>Receitas de deploy</div></td></tr><tr><td><div>False</div></td></tr><tr><td><div>http://www.web2py.com/book/default/chapter/13</div></td></tr></table></div></td></tr><tr><td><div><table><tr><td><div>Outras Receitas</div></td></tr><tr><td><div>False</div></td></tr><tr><td><div>http://www.web2py.com/book/default/chapter/14</div></td></tr></table></div></td></tr><tr><td><div><table><tr><td><div>Helping web2py</div></td></tr><tr><td><div>False</div></td></tr><tr><td><div>http://www.web2py.com/book/default/chapter/15</div></td></tr></table></div></td></tr><tr><td><div><table><tr><td><div>Compre o livro do web2py</div></td></tr><tr><td><div>False</div></td></tr><tr><td><div>http://stores.lulu.com/web2py</div></td></tr></table></div></td></tr></table></div></td></tr></table></div></td></tr><tr><td><div><table><tr><td><div>Comunidade</div></td></tr><tr><td><div>False</div></td></tr><tr><td><div>None</div></td></tr><tr><td><div><table><tr><td><div><table><tr><td><div>Grupos</div></td></tr><tr><td><div>False</div></td></tr><tr><td><div>http://www.web2py.com/examples/default/usergroups</div></td></tr></table></div></td></tr><tr><td><div><table><tr><td><div>Twitter</div></td></tr><tr><td><div>False</div></td></tr><tr><td><div>http://twitter.com/web2py</div></td></tr></table></div></td></tr><tr><td><div><table><tr><td><div>Chat ao vivo</div></td></tr><tr><td><div>False</div></td></tr><tr><td><div>http://webchat.freenode.net/?channels=web2py</div></td></tr></table></div></td></tr></table></div></td></tr></table></div></td></tr></table></div></td></tr><tr><td style="font-weight:bold;vertical-align:top;">meta</td><td style="vertical-align:top;">:</td><td><div><table><tr><td style="font-weight:bold;vertical-align:top;">author</td><td style="vertical-align:top;">:</td><td><div>Your Name &lt;you@example.com&gt;</div></td></tr><tr><td style="font-weight:bold;vertical-align:top;">description</td><td style="vertical-align:top;">:</td><td><div>a cool new app</div></td></tr><tr><td style="font-weight:bold;vertical-align:top;">generator</td><td style="vertical-align:top;">:</td><td><div>Web2py Web Framework</div></td></tr><tr><td style="font-weight:bold;vertical-align:top;">keywords</td><td style="vertical-align:top;">:</td><td><div><table><tr><td><div>web2py</div></td></tr><tr><td><div>python</div></td></tr><tr><td><div>framework</div></td></tr></table></div></td></tr></table></div></td></tr><tr><td style="font-weight:bold;vertical-align:top;">models_to_run</td><td style="vertical-align:top;">:</td><td><div><table><tr><td><div>^\\w+\\.py$</div></td></tr><tr><td><div>^default/\\w+\\.py$</div></td></tr><tr><td><div>^default/index/\\w+\\.py$</div></td></tr></table></div></td></tr><tr><td style="font-weight:bold;vertical-align:top;">postprocessing</td><td style="vertical-align:top;">:</td><td><div><table></table></div></td></tr><tr><td style="font-weight:bold;vertical-align:top;">session_client</td><td style="vertical-align:top;">:</td><td><div>127.0.0.1</div></td></tr><tr><td style="font-weight:bold;vertical-align:top;">session_cookie_compression_level</td><td style="vertical-align:top;">:</td><td><div>None</div></td></tr><tr><td style="font-weight:bold;vertical-align:top;">session_cookie_expires</td><td style="vertical-align:top;">:</td><td><div>None</div></td></tr><tr><td style="font-weight:bold;vertical-align:top;">session_data_name</td><td style="vertical-align:top;">:</td><td><div>session_data_paywall</div></td></tr><tr><td style="font-weight:bold;vertical-align:top;">session_file</td><td style="vertical-align:top;">:</td><td><div>None</div></td></tr><tr><td style="font-weight:bold;vertical-align:top;">session_filename</td><td style="vertical-align:top;">:</td><td><div>c:\\web2py\\applications\\paywall\\sessions\\127.0.0.1-0823f756-ebcc-4df0-b47d-990f29321bdb</div></td></tr><tr><td style="font-weight:bold;vertical-align:top;">session_hash</td><td style="vertical-align:top;">:</td><td><div>c0762cbf4baf7f9af97c051e7fcb8083</div></td></tr><tr><td style="font-weight:bold;vertical-align:top;">session_id</td><td style="vertical-align:top;">:</td><td><div>127.0.0.1-0823f756-ebcc-4df0-b47d-990f29321bdb</div></td></tr><tr><td style="font-weight:bold;vertical-align:top;">session_id_name</td><td style="vertical-align:top;">:</td><td><div>session_id_paywall</div></td></tr><tr><td style="font-weight:bold;vertical-align:top;">session_masterapp</td><td style="vertical-align:top;">:</td><td><div>paywall</div></td></tr><tr><td style="font-weight:bold;vertical-align:top;">session_new</td><td style="vertical-align:top;">:</td><td><div>True</div></td></tr><tr><td style="font-weight:bold;vertical-align:top;">session_storage_type</td><td style="vertical-align:top;">:</td><td><div>file</div></td></tr><tr><td style="font-weight:bold;vertical-align:top;">show_toolbar</td><td style="vertical-align:top;">:</td><td><div>False</div></td></tr><tr><td style="font-weight:bold;vertical-align:top;">status</td><td style="vertical-align:top;">:</td><td><div>200</div></td></tr><tr><td style="font-weight:bold;vertical-align:top;">view</td><td style="vertical-align:top;">:</td><td><div>default/index.html</div></td></tr></table></div>'
tRp297
sS'locals'
p298
(dp299
S'proxies'
p300
S"OrderedDict([('http', 'http://proxy.almg.uucp:3128/'), ('https', 'http://proxy.almg.uucp:3128/')])"
p301
sS'e'
S'MaxRetryError("HTTPSConnectionPool(host=\'www.em....red in violation of protocol (_ssl.c:661)\'),))",)'
p302
sS'stream'
p303
S'False'
p304
sS'url'
p305
S"'/app/noticia/gerais/2019/03/28/interna_gerais,10...rumadinho-e-localizado-vivo-apos-dois-meses.shtml'"
p306
sS'verify'
p307
S'True'
p308
sS'self'
p309
S'<requests.adapters.HTTPAdapter object>'
p310
sg60
S'<PreparedRequest [GET]>'
p311
sS'cert'
p312
S'None'
p313
sS'timeout'
p314
S'<urllib3.util.timeout.Timeout object>'
p315
sS'chunked'
p316
g304
sS'conn'
p317
S'<urllib3.connectionpool.HTTPSConnectionPool object>'
p318
sssS'traceback'
p319
S'Traceback (most recent call last):\n  File "c:\\web2py\\gluon\\restricted.py", line 219, in restricted\n    exec(ccode, environment)\n  File "c:\\web2py\\applications\\paywall\\controllers/default.py", line 69, in <module>\n  File "c:\\web2py\\gluon\\globals.py", line 421, in <lambda>\n    self._caller = lambda f: f()\n  File "c:\\web2py\\applications\\paywall\\controllers/default.py", line 13, in index\n    if request.vars.url: filename = paywall.pw_break(request.vars.url)\n  File "applications\\paywall\\modules\\paywall.py", line 41, in pw_break\n    resp = requests.get(url,proxies=proxies)\n  File "C:\\Python27\\lib\\site-packages\\requests\\api.py", line 75, in get\n    return request(\'get\', url, params=params, **kwargs)\n  File "C:\\Python27\\lib\\site-packages\\requests\\api.py", line 60, in request\n    return session.request(method=method, url=url, **kwargs)\n  File "C:\\Python27\\lib\\site-packages\\requests\\sessions.py", line 533, in request\n    resp = self.send(prep, **send_kwargs)\n  File "C:\\Python27\\lib\\site-packages\\requests\\sessions.py", line 646, in send\n    r = adapter.send(request, **kwargs)\n  File "C:\\Python27\\lib\\site-packages\\requests\\adapters.py", line 514, in send\n    raise SSLError(e, request=request)\nSSLError: HTTPSConnectionPool(host=\'www.em.com.br\', port=443): Max retries exceeded with url: /app/noticia/gerais/2019/03/28/interna_gerais,1041796/desaparecido-em-brumadinho-e-localizado-vivo-apos-dois-meses.shtml (Caused by SSLError(SSLEOFError(8, u\'EOF occurred in violation of protocol (_ssl.c:661)\'),))\n'
p320
s.