(dp1
S'output'
p2
S'The "end" tag is unmatched, please check if you have a starting "block" tag'
p3
sS'layer'
p4
S'ParserContainer'
p5
sS'code'
p6
S'{{extend \'layout.html\'}}\r\n\r\n<div class="container">\r\n    <form action="" id="myForm" method="get">\r\n        <input type="text" name="url" id="i_url">\r\n        <button type="submit">Enviar</button>\r\n    </form><!--\r\n    {{if request.vars.issubmit == True}}\r\n    <div class="container">\r\n        {{=page}}\r\n    </div>\r\n    {{end}}-->\r\n</div>\r\n'
p7
sS'snapshot'
p8
(dp9
sS'traceback'
p10
S'None\n'
p11
s.