(dp1
S'output'
p2
S'The "end" tag is unmatched, please check if you have a starting "block" tag'
p3
sS'layer'
p4
S'ParserContainer'
p5
sS'code'
p6
S'{{extend \'layout.html\'}}\r\n\r\n<div class="container">\r\n    <form action="" id="myForm" method="get">\r\n        <input type="text" name="url" id="i_url">\r\n        <button type="submit">Enviar</button>\r\n    </form><!--\r\n    {{if request.vars.issubmit == True}}\r\n    <div class="container">\r\n        {{=page}}\r\n    </div>\r\n    {{end}}-->\r\n</div>\r\n'
p7
sS'snapshot'
p8
(dp9
S'exception'
p10
(dp11
S'__module__'
p12
S"'gluon.rocket'"
p13
sS'__getslice__'
p14
S"<method-wrapper '__getslice__' of SocketTimeout object>"
p15
sS'__str__'
p16
S"<method-wrapper '__str__' of SocketTimeout object>"
p17
sS'__reduce__'
p18
S'<built-in method __reduce__ of SocketTimeout object>'
p19
sS'__dict__'
p20
S'{}'
p21
sS'__sizeof__'
p22
S'<built-in method __sizeof__ of SocketTimeout object>'
p23
sS'__weakref__'
p24
S'None'
p25
sS'message'
p26
S"'Socket timed out before request.'"
p27
sS'__init__'
p28
S"<method-wrapper '__init__' of SocketTimeout object>"
p29
sS'__setattr__'
p30
S"<method-wrapper '__setattr__' of SocketTimeout object>"
p31
sS'__reduce_ex__'
p32
S'<built-in method __reduce_ex__ of SocketTimeout object>'
p33
sS'__new__'
p34
S'<built-in method __new__ of type object>'
p35
sS'__format__'
p36
S'<built-in method __format__ of SocketTimeout object>'
p37
sS'__class__'
p38
S"<class 'gluon.rocket.SocketTimeout'>"
p39
sS'__doc__'
p40
S"'Exception for when a socket times out between requests.'"
p41
sS'__getitem__'
p42
S"<method-wrapper '__getitem__' of SocketTimeout object>"
p43
sS'__setstate__'
p44
S'<built-in method __setstate__ of SocketTimeout object>'
p45
sS'__getattribute__'
p46
S"<method-wrapper '__getattribute__' of SocketTimeout object>"
p47
sS'args'
p48
S"('Socket timed out before request.',)"
p49
sS'__subclasshook__'
p50
S'<built-in method __subclasshook__ of type object>'
p51
sS'__unicode__'
p52
S'<built-in method __unicode__ of SocketTimeout object>'
p53
sS'__delattr__'
p54
S"<method-wrapper '__delattr__' of SocketTimeout object>"
p55
sS'__repr__'
p56
S"<method-wrapper '__repr__' of SocketTimeout object>"
p57
sS'__hash__'
p58
S"<method-wrapper '__hash__' of SocketTimeout object>"
p59
ssS'evalue'
p60
S'Socket timed out before request.'
p61
sS'frames'
p62
(lp63
(dp64
S'file'
p65
S'c:\\web2py\\gluon\\rocket.py'
p66
sS'dump'
p67
(dp68
S'self'
p69
S'<WSGIWorker(Thread-11, started daemon 15212)>'
p70
sS'conn'
p71
S'<gluon.rocket.Connection object>'
p72
sS'self.run_app'
p73
S'<bound method WSGIWorker.run_app of <WSGIWorker(Thread-11, started daemon 15212)>>'
p74
ssS'lnum'
p75
I1288
sS'lines'
p76
(dp77
I1283
S'            # Enter connection serve loop'
p78
sI1284
S'            while True:'
p79
sI1285
S'                if __debug__:'
p80
sI1286
S"                    self.err_log.debug('Serving a request')"
p81
sI1287
S'                try:'
p82
sI1288
S'                    self.run_app(conn)'
p83
sI1289
S'                except:'
p84
sI1290
S'                    exc = sys.exc_info()'
p85
sI1291
S'                    handled = self._handleError(*exc)'
p86
sI1292
S'                    if handled:'
p87
ssS'call'
p88
S'(self=<WSGIWorker(Thread-11, started daemon 15212)>)'
p89
sS'func'
p90
S'run'
p91
sa(dp92
g65
S'c:\\web2py\\gluon\\rocket.py'
p93
sg67
(dp94
S'self'
p95
S'<WSGIWorker(Thread-11, started daemon 15212)>'
p96
sS'self.environ'
p97
S"{'HTTP_ACCEPT': 'text/html,application/xhtml+xml,application/xml;...e/apng,*/*;q=0.8,application/signed-exchange;v=b3', 'HTTP_ACCEPT_ENCODING': 'gzip, deflate, br', 'HTTP_ACCEPT_LANGUAGE': 'pt-BR,pt;q=0.9,en-US;q=0.8,en;q=0.7', 'HTTP_CONNECTION': 'keep-alive', 'HTTP_COOKIE': 'session_id_welcome=127.0.0.1-d0d55e64-588f-44da-...ll=127.0.0.1-92ca464a-0c9f-4fff-97a5-6d06c8b7bfc6', 'HTTP_HOST': '127.0.0.1:8000', 'HTTP_REFERER': 'http://127.0.0.1:8000/admin/default/site', 'HTTP_UPGRADE_INSECURE_REQUESTS': '1', 'HTTP_USER_AGENT': 'Mozilla/5.0 (Windows NT 10.0; Win64; x64) AppleW...ML, like Gecko) Chrome/73.0.3683.86 Safari/537.36', 'PATH_INFO': '/paywall/default/index', ...}"
p98
sS'sock_file'
p99
S'<socket._fileobject object>'
p100
sS'environ'
p101
S'undefined'
p102
sS'self.build_environ'
p103
S'<bound method WSGIWorker.build_environ of <WSGIWorker(Thread-11, started daemon 15212)>>'
p104
sS'conn'
p105
S'<gluon.rocket.Connection object>'
p106
ssg75
I1781
sg76
(dp107
I1776
S'        else:'
p108
sI1777
S'            sock_file = conn.makefile(BUF_SIZE)'
p109
sI1778
S''
sI1779
S'        try:'
p110
sI1780
S'            # Read the headers and build our WSGI environment'
p111
sI1781
S'            self.environ = environ = self.build_environ(sock_file, conn)'
p112
sI1782
S''
sI1783
S'            # Handle 100 Continue'
p113
sI1784
S"            if environ.get('HTTP_EXPECT', '') == '100-continue':"
p114
sI1785
S"                res = environ['SERVER_PROTOCOL'] + ' 100 Continue\\r\\n\\r\\n'"
p115
ssg88
S'(self=<WSGIWorker(Thread-11, started daemon 15212)>, conn=<gluon.rocket.Connection object>)'
p116
sg90
S'run_app'
p117
sa(dp118
g65
S'c:\\web2py\\gluon\\rocket.py'
p119
sg67
(dp120
S'sock_file'
p121
S'<socket._fileobject object>'
p122
sS'self.read_request_line'
p123
S'<bound method WSGIWorker.read_request_line of <WSGIWorker(Thread-11, started daemon 15212)>>'
p124
sS'self'
p125
S'<WSGIWorker(Thread-11, started daemon 15212)>'
p126
sS'request'
p127
g102
ssg75
I1601
sg76
(dp128
I1600
S'        # Grab the request line'
p129
sI1601
S'        request = self.read_request_line(sock_file)'
p130
sI1602
S''
sI1603
S'        # Copy the Base Environment'
p131
sI1604
S'        environ = self.base_environ.copy()'
p132
sI1605
S''
sI1596
S'                                      "wsgiorg.futures": executor.futures})'
p133
sI1597
S''
sI1598
S'    def build_environ(self, sock_file, conn):'
p134
sI1599
S'        """ Build the execution environment. """'
p135
ssg88
S'(self=<WSGIWorker(Thread-11, started daemon 15212)>, sock_file=<socket._fileobject object>, conn=<gluon.rocket.Connection object>)'
p136
sg90
S'build_environ'
p137
sa(dp138
g65
S'c:\\web2py\\gluon\\rocket.py'
p139
sg67
(dp140
S'global SocketTimeout'
p141
S"<class 'gluon.rocket.SocketTimeout'>"
p142
ssg75
I1352
sg76
(dp143
I1347
S''
sI1348
S'                d = sock_file.readline()'
p144
sI1349
S'                if PY3K:'
p145
sI1350
S"                    d = d.decode('ISO-8859-1')"
p146
sI1351
S'        except socket.timeout:'
p147
sI1352
S"            raise SocketTimeout('Socket timed out before request.')"
p148
sI1353
S'        except TypeError:'
p149
sI1354
S'            raise SocketClosed('
p150
sI1355
S"                'SSL bug caused closure of socket.  See '"
p151
sI1356
S'                \'"https://groups.google.com/d/topic/web2py/P_Gw0JxWzCs".\')'
p152
ssg88
S'(self=<WSGIWorker(Thread-11, started daemon 15212)>, sock_file=<socket._fileobject object>)'
p153
sg90
S'read_request_line'
p154
sasS'pyver'
p155
S'Python 2.7.14: C:\\Python27\\python.exe (prefix: C:\\Python27)'
p156
sS'etype'
p157
S"<class 'gluon.rocket.SocketTimeout'>"
p158
sS'date'
p159
S'Thu Mar 28 13:01:34 2019'
p160
sS'locals'
p161
(dp162
S'sock_file'
p163
S'<socket._fileobject object>'
p164
sS'self'
p165
S'<WSGIWorker(Thread-11, started daemon 15212)>'
p166
sssS'traceback'
p167
S'Traceback (most recent call last):\n  File "c:\\web2py\\gluon\\rocket.py", line 1288, in run\n    self.run_app(conn)\n  File "c:\\web2py\\gluon\\rocket.py", line 1781, in run_app\n    self.environ = environ = self.build_environ(sock_file, conn)\n  File "c:\\web2py\\gluon\\rocket.py", line 1601, in build_environ\n    request = self.read_request_line(sock_file)\n  File "c:\\web2py\\gluon\\rocket.py", line 1352, in read_request_line\n    raise SocketTimeout(\'Socket timed out before request.\')\nSocketTimeout: Socket timed out before request.\n'
p168
s.